target datalayout = "e-m:e-p270:32:32-p271:32:32-p272:64:64-i64:64-i128:128-f80:128-n8:16:32:64-S128"
target triple = "x86_64-pc-linux-gnu"

%"class.logos::Match" = type { ptr, ptr, float, float, float, float, float, float, float, float, float, float }
%"class.logos::PointPair" = type <{ ptr, ptr, i32, float, float, i32, i32, [4 x i8] }>

; Function Attrs: inlinehint mustprogress nounwind uwtable
define linkonce_odr noundef float @_ZSt4fabsf(float noundef %0) #6 comdat {
  %2 = alloca float, align 4
  store float %0, ptr %2, align 4, !tbaa !20
  %3 = load float, ptr %2, align 4, !tbaa !20
  %4 = call float @llvm.fabs.f32(float %3)
  ret float %4
}

; Function Attrs: mustprogress nounwind uwtable
define linkonce_odr hidden noundef float @_ZNK5logos9PointPair11getRelScaleEv(ptr noundef nonnull align 8 dereferenceable(36) %0) #5 comdat align 2 {
  %2 = alloca ptr, align 8
  store ptr %0, ptr %2, align 8, !tbaa !8
  %3 = load ptr, ptr %2, align 8
  %4 = getelementptr inbounds nuw %"class.logos::PointPair", ptr %3, i32 0, i32 4
  %5 = load float, ptr %4, align 8, !tbaa !33
  ret float %5
}

; Function Attrs: mustprogress uwtable
define hidden void @_ZN5logos5Match11setRelScaleEv(ptr noundef nonnull align 8 dereferenceable(56) %0) #4 align 2 {
  %2 = alloca ptr, align 8
  store ptr %0, ptr %2, align 8, !tbaa !3
  %3 = load ptr, ptr %2, align 8
  %4 = getelementptr inbounds nuw %"class.logos::Match", ptr %3, i32 0, i32 0
  %5 = load ptr, ptr %4, align 8, !tbaa !10
  %6 = call noundef float @_ZNK5logos9PointPair11getRelScaleEv(ptr noundef nonnull align 8 dereferenceable(36) %5)
  %7 = getelementptr inbounds nuw %"class.logos::Match", ptr %3, i32 0, i32 1
  %8 = load ptr, ptr %7, align 8, !tbaa !13
  %9 = call noundef float @_ZNK5logos9PointPair11getRelScaleEv(ptr noundef nonnull align 8 dereferenceable(36) %8)
  %10 = fsub float %6, %9
  %11 = call noundef float @_ZSt4fabsf(float noundef %10)
  %12 = getelementptr inbounds nuw %"class.logos::Match", ptr %3, i32 0, i32 3
  store float %11, ptr %12, align 4, !tbaa !19
  ret void
}