; Function Attrs: mustprogress nofree norecurse nosync nounwind willreturn memory(read, argmem: readwrite, inaccessiblemem: none) uwtable
define hidden void @_ZN5logos5Match11setRelScaleEv(ptr noundef nonnull align 8 captures(none) dereferenceable(56) initializes((20, 24)) %0) local_unnamed_addr #4 align 2 {
  %2 = load ptr, ptr %0, align 8, !tbaa !3
  %3 = getelementptr inbounds nuw i8, ptr %2, i64 24
  %4 = load float, ptr %3, align 8, !tbaa !34
  %5 = getelementptr inbounds nuw i8, ptr %0, i64 8
  %6 = load ptr, ptr %5, align 8, !tbaa !10
  %7 = getelementptr inbounds nuw i8, ptr %6, i64 24
  %8 = load float, ptr %7, align 8, !tbaa !34
  %9 = fsub float %4, %8
  %10 = tail call noundef float @llvm.fabs.f32(float %9)
  %11 = getelementptr inbounds nuw i8, ptr %0, i64 20
  store float %10, ptr %11, align 4, !tbaa !35
  ret void
}